target datalayout = "e-m:e-p270:32:32-p271:32:32-p272:64:64-i64:64-i128:128-f80:128-n8:16:32:64-S128"
target triple = "x86_64-pc-linux-gnu"

%struct.yy_buffer_state = type { ptr, ptr, ptr, i32, i32, i32, i32, i32, i32, i32, i32, i32 }

@frontend_verilog_yyin = global ptr null, align 8
@frontend_verilog_yytext = global ptr null, align 8
@_ZL15yy_buffer_stack = internal global ptr null, align 8
@_ZL19yy_buffer_stack_top = internal global i64 0, align 8
@_ZL10yy_c_buf_p = internal global ptr null, align 8
@_ZL12yy_hold_char = internal global i8 0, align 1
@_ZL10yy_n_chars = internal global i32 0, align 4
@_ZL27yy_did_buffer_switch_on_eof = internal global i32 0, align 4
@.str.22 = private unnamed_addr constant [49 x i8] c"out of dynamic memory in yyensure_buffer_stack()\00", align 1
@_ZL19yy_buffer_stack_max = internal global i64 0, align 8

; Function Attrs: mustprogress nounwind uwtable
define noundef ptr @_Z26frontend_verilog_yyreallocPvm(ptr noundef %0, i64 noundef %1) #4 {
  %3 = alloca ptr, align 8
  %4 = alloca i64, align 8
  store ptr %0, ptr %3, align 8, !tbaa !282
  store i64 %1, ptr %4, align 8, !tbaa !33
  %5 = load ptr, ptr %3, align 8, !tbaa !282
  %6 = load i64, ptr %4, align 8, !tbaa !33
  %7 = call ptr @realloc(ptr noundef %5, i64 noundef %6) #31
  ret ptr %7
}

; Function Attrs: mustprogress nounwind uwtable
define noundef ptr @_Z24frontend_verilog_yyallocm(i64 noundef %0) #4 {
  %2 = alloca i64, align 8
  store i64 %0, ptr %2, align 8, !tbaa !33
  %3 = load i64, ptr %2, align 8, !tbaa !33
  %4 = call noalias ptr @malloc(i64 noundef %3) #29
  ret ptr %4
}

; Function Attrs: mustprogress nounwind uwtable
define internal void @_ZL37frontend_verilog_yy_load_buffer_statev() #4 {
  %1 = load ptr, ptr @_ZL15yy_buffer_stack, align 8, !tbaa !30
  %2 = load i64, ptr @_ZL19yy_buffer_stack_top, align 8, !tbaa !33
  %3 = getelementptr inbounds nuw ptr, ptr %1, i64 %2
  %4 = load ptr, ptr %3, align 8, !tbaa !35
  %5 = getelementptr inbounds nuw %struct.yy_buffer_state, ptr %4, i32 0, i32 4
  %6 = load i32, ptr %5, align 4, !tbaa !255
  store i32 %6, ptr @_ZL10yy_n_chars, align 4, !tbaa !25
  %7 = load ptr, ptr @_ZL15yy_buffer_stack, align 8, !tbaa !30
  %8 = load i64, ptr @_ZL19yy_buffer_stack_top, align 8, !tbaa !33
  %9 = getelementptr inbounds nuw ptr, ptr %7, i64 %8
  %10 = load ptr, ptr %9, align 8, !tbaa !35
  %11 = getelementptr inbounds nuw %struct.yy_buffer_state, ptr %10, i32 0, i32 2
  %12 = load ptr, ptr %11, align 8, !tbaa !261
  store ptr %12, ptr @_ZL10yy_c_buf_p, align 8, !tbaa !37
  store ptr %12, ptr @frontend_verilog_yytext, align 8, !tbaa !37
  %13 = load ptr, ptr @_ZL15yy_buffer_stack, align 8, !tbaa !30
  %14 = load i64, ptr @_ZL19yy_buffer_stack_top, align 8, !tbaa !33
  %15 = getelementptr inbounds nuw ptr, ptr %13, i64 %14
  %16 = load ptr, ptr %15, align 8, !tbaa !35
  %17 = getelementptr inbounds nuw %struct.yy_buffer_state, ptr %16, i32 0, i32 0
  %18 = load ptr, ptr %17, align 8, !tbaa !256
  store ptr %18, ptr @frontend_verilog_yyin, align 8, !tbaa !28
  %19 = load ptr, ptr @_ZL10yy_c_buf_p, align 8, !tbaa !37
  %20 = load i8, ptr %19, align 1, !tbaa !39
  store i8 %20, ptr @_ZL12yy_hold_char, align 1, !tbaa !39
  ret void
}

; Function Attrs: mustprogress uwtable
define internal void @_ZL38frontend_verilog_yyensure_buffer_stackv() #5 {
  %1 = alloca i64, align 8
  %2 = alloca i32, align 4
  %3 = alloca i64, align 8
  call void @llvm.lifetime.start.p0(i64 8, ptr %1) #3
  %4 = load ptr, ptr @_ZL15yy_buffer_stack, align 8, !tbaa !30
  %5 = icmp ne ptr %4, null
  br i1 %5, label %18, label %6

6:                                                ; preds = %0
  store i64 1, ptr %1, align 8, !tbaa !33
  %7 = load i64, ptr %1, align 8, !tbaa !33
  %8 = mul i64 %7, 8
  %9 = call noundef ptr @_Z24frontend_verilog_yyallocm(i64 noundef %8)
  store ptr %9, ptr @_ZL15yy_buffer_stack, align 8, !tbaa !30
  %10 = load ptr, ptr @_ZL15yy_buffer_stack, align 8, !tbaa !30
  %11 = icmp ne ptr %10, null
  br i1 %11, label %13, label %12

12:                                               ; preds = %6
  call void @_ZL14yy_fatal_errorPKc(ptr noundef @.str.22) #25
  unreachable

13:                                               ; preds = %6
  %14 = load ptr, ptr @_ZL15yy_buffer_stack, align 8, !tbaa !30
  %15 = load i64, ptr %1, align 8, !tbaa !33
  %16 = mul i64 %15, 8
  call void @llvm.memset.p0.i64(ptr align 8 %14, i8 0, i64 %16, i1 false)
  %17 = load i64, ptr %1, align 8, !tbaa !33
  store i64 %17, ptr @_ZL19yy_buffer_stack_max, align 8, !tbaa !33
  store i64 0, ptr @_ZL19yy_buffer_stack_top, align 8, !tbaa !33
  store i32 1, ptr %2, align 4
  br label %42

18:                                               ; preds = %0
  %19 = load i64, ptr @_ZL19yy_buffer_stack_top, align 8, !tbaa !33
  %20 = load i64, ptr @_ZL19yy_buffer_stack_max, align 8, !tbaa !33
  %21 = sub i64 %20, 1
  %22 = icmp uge i64 %19, %21
  br i1 %22, label %23, label %41

23:                                               ; preds = %18
  call void @llvm.lifetime.start.p0(i64 8, ptr %3) #3
  store i64 8, ptr %3, align 8, !tbaa !33
  %24 = load i64, ptr @_ZL19yy_buffer_stack_max, align 8, !tbaa !33
  %25 = load i64, ptr %3, align 8, !tbaa !33
  %26 = add i64 %24, %25
  store i64 %26, ptr %1, align 8, !tbaa !33
  %27 = load ptr, ptr @_ZL15yy_buffer_stack, align 8, !tbaa !30
  %28 = load i64, ptr %1, align 8, !tbaa !33
  %29 = mul i64 %28, 8
  %30 = call noundef ptr @_Z26frontend_verilog_yyreallocPvm(ptr noundef %27, i64 noundef %29)
  store ptr %30, ptr @_ZL15yy_buffer_stack, align 8, !tbaa !30
  %31 = load ptr, ptr @_ZL15yy_buffer_stack, align 8, !tbaa !30
  %32 = icmp ne ptr %31, null
  br i1 %32, label %34, label %33

33:                                               ; preds = %23
  call void @_ZL14yy_fatal_errorPKc(ptr noundef @.str.22) #25
  unreachable

34:                                               ; preds = %23
  %35 = load ptr, ptr @_ZL15yy_buffer_stack, align 8, !tbaa !30
  %36 = load i64, ptr @_ZL19yy_buffer_stack_max, align 8, !tbaa !33
  %37 = getelementptr inbounds nuw ptr, ptr %35, i64 %36
  %38 = load i64, ptr %3, align 8, !tbaa !33
  %39 = mul i64 %38, 8
  call void @llvm.memset.p0.i64(ptr align 8 %37, i8 0, i64 %39, i1 false)
  %40 = load i64, ptr %1, align 8, !tbaa !33
  store i64 %40, ptr @_ZL19yy_buffer_stack_max, align 8, !tbaa !33
  call void @llvm.lifetime.end.p0(i64 8, ptr %3) #3
  br label %41

41:                                               ; preds = %34, %18
  store i32 0, ptr %2, align 4
  br label %42

42:                                               ; preds = %41, %13
  call void @llvm.lifetime.end.p0(i64 8, ptr %1) #3
  %43 = load i32, ptr %2, align 4
  switch i32 %43, label %45 [
    i32 0, label %44
    i32 1, label %44
  ]

44:                                               ; preds = %42, %42
  ret void

45:                                               ; preds = %42
  unreachable
}

; Function Attrs: mustprogress uwtable
define void @_Z36frontend_verilog_yypush_buffer_stateP15yy_buffer_state(ptr noundef %0) #5 {
  %2 = alloca ptr, align 8
  store ptr %0, ptr %2, align 8, !tbaa !35
  %3 = load ptr, ptr %2, align 8, !tbaa !35
  %4 = icmp eq ptr %3, null
  br i1 %4, label %5, label %6

5:                                                ; preds = %1
  br label %53

6:                                                ; preds = %1
  call void @_ZL38frontend_verilog_yyensure_buffer_stackv()
  %7 = load ptr, ptr @_ZL15yy_buffer_stack, align 8, !tbaa !30
  %8 = icmp ne ptr %7, null
  br i1 %8, label %9, label %14

9:                                                ; preds = %6
  %10 = load ptr, ptr @_ZL15yy_buffer_stack, align 8, !tbaa !30
  %11 = load i64, ptr @_ZL19yy_buffer_stack_top, align 8, !tbaa !33
  %12 = getelementptr inbounds nuw ptr, ptr %10, i64 %11
  %13 = load ptr, ptr %12, align 8, !tbaa !35
  br label %15

14:                                               ; preds = %6
  br label %15

15:                                               ; preds = %14, %9
  %16 = phi ptr [ %13, %9 ], [ null, %14 ]
  %17 = icmp ne ptr %16, null
  br i1 %17, label %18, label %33

18:                                               ; preds = %15
  %19 = load i8, ptr @_ZL12yy_hold_char, align 1, !tbaa !39
  %20 = load ptr, ptr @_ZL10yy_c_buf_p, align 8, !tbaa !37
  store i8 %19, ptr %20, align 1, !tbaa !39
  %21 = load ptr, ptr @_ZL10yy_c_buf_p, align 8, !tbaa !37
  %22 = load ptr, ptr @_ZL15yy_buffer_stack, align 8, !tbaa !30
  %23 = load i64, ptr @_ZL19yy_buffer_stack_top, align 8, !tbaa !33
  %24 = getelementptr inbounds nuw ptr, ptr %22, i64 %23
  %25 = load ptr, ptr %24, align 8, !tbaa !35
  %26 = getelementptr inbounds nuw %struct.yy_buffer_state, ptr %25, i32 0, i32 2
  store ptr %21, ptr %26, align 8, !tbaa !261
  %27 = load i32, ptr @_ZL10yy_n_chars, align 4, !tbaa !25
  %28 = load ptr, ptr @_ZL15yy_buffer_stack, align 8, !tbaa !30
  %29 = load i64, ptr @_ZL19yy_buffer_stack_top, align 8, !tbaa !33
  %30 = getelementptr inbounds nuw ptr, ptr %28, i64 %29
  %31 = load ptr, ptr %30, align 8, !tbaa !35
  %32 = getelementptr inbounds nuw %struct.yy_buffer_state, ptr %31, i32 0, i32 4
  store i32 %27, ptr %32, align 4, !tbaa !255
  br label %33

33:                                               ; preds = %18, %15
  %34 = load ptr, ptr @_ZL15yy_buffer_stack, align 8, !tbaa !30
  %35 = icmp ne ptr %34, null
  br i1 %35, label %36, label %41

36:                                               ; preds = %33
  %37 = load ptr, ptr @_ZL15yy_buffer_stack, align 8, !tbaa !30
  %38 = load i64, ptr @_ZL19yy_buffer_stack_top, align 8, !tbaa !33
  %39 = getelementptr inbounds nuw ptr, ptr %37, i64 %38
  %40 = load ptr, ptr %39, align 8, !tbaa !35
  br label %42

41:                                               ; preds = %33
  br label %42

42:                                               ; preds = %41, %36
  %43 = phi ptr [ %40, %36 ], [ null, %41 ]
  %44 = icmp ne ptr %43, null
  br i1 %44, label %45, label %48

45:                                               ; preds = %42
  %46 = load i64, ptr @_ZL19yy_buffer_stack_top, align 8, !tbaa !33
  %47 = add i64 %46, 1
  store i64 %47, ptr @_ZL19yy_buffer_stack_top, align 8, !tbaa !33
  br label %48

48:                                               ; preds = %45, %42
  %49 = load ptr, ptr %2, align 8, !tbaa !35
  %50 = load ptr, ptr @_ZL15yy_buffer_stack, align 8, !tbaa !30
  %51 = load i64, ptr @_ZL19yy_buffer_stack_top, align 8, !tbaa !33
  %52 = getelementptr inbounds nuw ptr, ptr %50, i64 %51
  store ptr %49, ptr %52, align 8, !tbaa !35
  call void @_ZL37frontend_verilog_yy_load_buffer_statev()
  store i32 1, ptr @_ZL27yy_did_buffer_switch_on_eof, align 4, !tbaa !25
  br label %53

53:                                               ; preds = %48, %5
  ret void
}