; Function Attrs: mustprogress nounwind uwtable
define void @_Z36frontend_verilog_yypush_buffer_stateP15yy_buffer_state(ptr noundef %0) local_unnamed_addr #3 {
  %2 = icmp eq ptr %0, null
  br i1 %2, label %41, label %3

3:                                                ; preds = %1
  %4 = load ptr, ptr @_ZL15yy_buffer_stack, align 8, !tbaa !32
  %.not.i = icmp eq ptr %4, null
  br i1 %.not.i, label %5, label %9

5:                                                ; preds = %3
  %6 = tail call noalias noundef dereferenceable_or_null(8) ptr @malloc(i64 noundef 8) #39
  store ptr %6, ptr @_ZL15yy_buffer_stack, align 8, !tbaa !32
  %.not9.i = icmp eq ptr %6, null
  br i1 %.not9.i, label %7, label %8

7:                                                ; preds = %5
  tail call fastcc void @_ZL14yy_fatal_errorPKc(ptr noundef nonnull @.str.22) #40
  unreachable

8:                                                ; preds = %5
  store i64 0, ptr %6, align 8
  store i64 1, ptr @_ZL19yy_buffer_stack_max, align 8, !tbaa !35
  store i64 0, ptr @_ZL19yy_buffer_stack_top, align 8, !tbaa !35
  br label %_ZL38frontend_verilog_yyensure_buffer_stackv.exit

9:                                                ; preds = %3
  %10 = load i64, ptr @_ZL19yy_buffer_stack_top, align 8, !tbaa !35
  %11 = load i64, ptr @_ZL19yy_buffer_stack_max, align 8, !tbaa !35
  %12 = add i64 %11, -1
  %.not10.i = icmp ult i64 %10, %12
  br i1 %.not10.i, label %_ZL38frontend_verilog_yyensure_buffer_stackv.exit, label %13

13:                                               ; preds = %9
  %14 = add i64 %11, 8
  %15 = shl i64 %14, 3
  %16 = tail call noalias noundef ptr @realloc(ptr noundef nonnull %4, i64 noundef %15) #41
  store ptr %16, ptr @_ZL15yy_buffer_stack, align 8, !tbaa !32
  %.not11.i = icmp eq ptr %16, null
  br i1 %.not11.i, label %17, label %18

17:                                               ; preds = %13
  tail call fastcc void @_ZL14yy_fatal_errorPKc(ptr noundef nonnull @.str.22) #40
  unreachable

18:                                               ; preds = %13
  %19 = getelementptr inbounds nuw ptr, ptr %16, i64 %11
  tail call void @llvm.memset.p0.i64(ptr noundef nonnull align 8 dereferenceable(64) %19, i8 0, i64 64, i1 false)
  store i64 %14, ptr @_ZL19yy_buffer_stack_max, align 8, !tbaa !35
  br label %_ZL38frontend_verilog_yyensure_buffer_stackv.exit

_ZL38frontend_verilog_yyensure_buffer_stackv.exit: ; preds = %18, %9, %8
  %20 = phi i64 [ 0, %8 ], [ %10, %9 ], [ %10, %18 ]
  %21 = phi ptr [ %6, %8 ], [ %4, %9 ], [ %16, %18 ]
  %22 = getelementptr inbounds nuw ptr, ptr %21, i64 %20
  %23 = load ptr, ptr %22, align 8, !tbaa !36
  %24 = icmp eq ptr %23, null
  br i1 %24, label %.critedge8, label %25

25:                                               ; preds = %_ZL38frontend_verilog_yyensure_buffer_stackv.exit
  %26 = load i8, ptr @_ZL12yy_hold_char, align 1, !tbaa !19
  %27 = load ptr, ptr @_ZL10yy_c_buf_p, align 8, !tbaa !44
  store i8 %26, ptr %27, align 1, !tbaa !19
  %28 = load ptr, ptr %22, align 8, !tbaa !36
  %29 = getelementptr inbounds nuw i8, ptr %28, i64 16
  store ptr %27, ptr %29, align 8, !tbaa !43
  %30 = load i32, ptr @_ZL10yy_n_chars, align 4, !tbaa !28
  %31 = getelementptr inbounds nuw i8, ptr %28, i64 28
  store i32 %30, ptr %31, align 4, !tbaa !42
  %32 = add i64 %20, 1
  store i64 %32, ptr @_ZL19yy_buffer_stack_top, align 8, !tbaa !35
  br label %.critedge8

.critedge8:                                       ; preds = %_ZL38frontend_verilog_yyensure_buffer_stackv.exit, %25
  %33 = phi i64 [ %32, %25 ], [ %20, %_ZL38frontend_verilog_yyensure_buffer_stackv.exit ]
  %34 = getelementptr inbounds nuw ptr, ptr %21, i64 %33
  store ptr %0, ptr %34, align 8, !tbaa !36
  %35 = getelementptr inbounds nuw i8, ptr %0, i64 28
  %36 = load i32, ptr %35, align 4, !tbaa !42
  store i32 %36, ptr @_ZL10yy_n_chars, align 4, !tbaa !28
  %37 = getelementptr inbounds nuw i8, ptr %0, i64 16
  %38 = load ptr, ptr %37, align 8, !tbaa !43
  store ptr %38, ptr @_ZL10yy_c_buf_p, align 8, !tbaa !44
  store ptr %38, ptr @frontend_verilog_yytext, align 8, !tbaa !44
  %39 = load ptr, ptr %0, align 8, !tbaa !45
  store ptr %39, ptr @frontend_verilog_yyin, align 8, !tbaa !30
  %40 = load i8, ptr %38, align 1, !tbaa !19
  store i8 %40, ptr @_ZL12yy_hold_char, align 1, !tbaa !19
  br label %41

41:                                               ; preds = %1, %.critedge8
  ret void
}